target datalayout = "e-m:e-p270:32:32-p271:32:32-p272:64:64-i64:64-i128:128-f80:128-n8:16:32:64-S128"
target triple = "x86_64-pc-linux-gnu"

%struct.mbedtls_asn1_bitstring = type { i64, i8, ptr }

@.str = private unnamed_addr constant [118 x i8] c"generated/home/dtcxzyw/WorkSpace/Projects/compilers/llvm-opt-benchmark/bench/lief/bench_build/mbed_src/library/x509.c\00", align 1

; Function Attrs: inlinehint nounwind uwtable
define internal i32 @mbedtls_error_add(i32 noundef %0, i32 noundef %1, ptr noundef %2, i32 noundef %3) #2 {
  %5 = alloca i32, align 4
  %6 = alloca i32, align 4
  %7 = alloca ptr, align 8
  %8 = alloca i32, align 4
  store i32 %0, ptr %5, align 4, !tbaa !13
  store i32 %1, ptr %6, align 4, !tbaa !13
  store ptr %2, ptr %7, align 8, !tbaa !9
  store i32 %3, ptr %8, align 4, !tbaa !13
  %9 = load i32, ptr %5, align 4, !tbaa !13
  %10 = load i32, ptr %6, align 4, !tbaa !13
  %11 = add nsw i32 %9, %10
  ret i32 %11
}

; Function Attrs: nounwind uwtable
define hidden i32 @mbedtls_x509_get_key_usage(ptr noundef %0, ptr noundef %1, ptr noundef %2) #0 {
  %4 = alloca i32, align 4
  %5 = alloca ptr, align 8
  %6 = alloca ptr, align 8
  %7 = alloca ptr, align 8
  %8 = alloca i32, align 4
  %9 = alloca i64, align 8
  %10 = alloca %struct.mbedtls_asn1_bitstring, align 8
  %11 = alloca i32, align 4
  store ptr %0, ptr %5, align 8, !tbaa !3
  store ptr %1, ptr %6, align 8, !tbaa !9
  store ptr %2, ptr %7, align 8, !tbaa !22
  call void @llvm.lifetime.start.p0(i64 4, ptr %8) #9
  store i32 -110, ptr %8, align 4, !tbaa !13
  call void @llvm.lifetime.start.p0(i64 8, ptr %9) #9
  call void @llvm.lifetime.start.p0(i64 24, ptr %10) #9
  call void @llvm.memset.p0.i64(ptr align 8 %10, i8 0, i64 24, i1 false)
  %12 = load ptr, ptr %5, align 8, !tbaa !3
  %13 = load ptr, ptr %6, align 8, !tbaa !9
  %14 = call i32 @mbedtls_asn1_get_bitstring(ptr noundef %12, ptr noundef %13, ptr noundef %10)
  store i32 %14, ptr %8, align 4, !tbaa !13
  %15 = icmp ne i32 %14, 0
  br i1 %15, label %16, label %19

16:                                               ; preds = %3
  %17 = load i32, ptr %8, align 4, !tbaa !13
  %18 = call i32 @mbedtls_error_add(i32 noundef -9472, i32 noundef %17, ptr noundef @.str, i32 noundef 1375)
  store i32 %18, ptr %4, align 4
  store i32 1, ptr %11, align 4
  br label %55

19:                                               ; preds = %3
  %20 = getelementptr inbounds nuw %struct.mbedtls_asn1_bitstring, ptr %10, i32 0, i32 0
  %21 = load i64, ptr %20, align 8, !tbaa !73
  %22 = icmp eq i64 %21, 0
  br i1 %22, label %23, label %25

23:                                               ; preds = %19
  %24 = load ptr, ptr %7, align 8, !tbaa !22
  store i32 0, ptr %24, align 4, !tbaa !13
  store i32 0, ptr %4, align 4
  store i32 1, ptr %11, align 4
  br label %55

25:                                               ; preds = %19
  %26 = load ptr, ptr %7, align 8, !tbaa !22
  store i32 0, ptr %26, align 4, !tbaa !13
  store i64 0, ptr %9, align 8, !tbaa !24
  br label %27

27:                                               ; preds = %51, %25
  %28 = load i64, ptr %9, align 8, !tbaa !24
  %29 = getelementptr inbounds nuw %struct.mbedtls_asn1_bitstring, ptr %10, i32 0, i32 0
  %30 = load i64, ptr %29, align 8, !tbaa !73
  %31 = icmp ult i64 %28, %30
  br i1 %31, label %32, label %35

32:                                               ; preds = %27
  %33 = load i64, ptr %9, align 8, !tbaa !24
  %34 = icmp ult i64 %33, 4
  br label %35

35:                                               ; preds = %32, %27
  %36 = phi i1 [ false, %27 ], [ %34, %32 ]
  br i1 %36, label %37, label %54

37:                                               ; preds = %35
  %38 = getelementptr inbounds nuw %struct.mbedtls_asn1_bitstring, ptr %10, i32 0, i32 2
  %39 = load ptr, ptr %38, align 8, !tbaa !75
  %40 = load i64, ptr %9, align 8, !tbaa !24
  %41 = getelementptr inbounds nuw i8, ptr %39, i64 %40
  %42 = load i8, ptr %41, align 1, !tbaa !15
  %43 = zext i8 %42 to i32
  %44 = load i64, ptr %9, align 8, !tbaa !24
  %45 = mul i64 8, %44
  %46 = trunc i64 %45 to i32
  %47 = shl i32 %43, %46
  %48 = load ptr, ptr %7, align 8, !tbaa !22
  %49 = load i32, ptr %48, align 4, !tbaa !13
  %50 = or i32 %49, %47
  store i32 %50, ptr %48, align 4, !tbaa !13
  br label %51

51:                                               ; preds = %37
  %52 = load i64, ptr %9, align 8, !tbaa !24
  %53 = add i64 %52, 1
  store i64 %53, ptr %9, align 8, !tbaa !24
  br label %27, !llvm.loop !76

54:                                               ; preds = %35
  store i32 0, ptr %4, align 4
  store i32 1, ptr %11, align 4
  br label %55

55:                                               ; preds = %54, %23, %16
  call void @llvm.lifetime.end.p0(i64 24, ptr %10) #9
  call void @llvm.lifetime.end.p0(i64 8, ptr %9) #9
  call void @llvm.lifetime.end.p0(i64 4, ptr %8) #9
  %56 = load i32, ptr %4, align 4
  ret i32 %56
}