; Function Attrs: nounwind uwtable
define hidden range(i32 -2147483648, 2147474176) i32 @mbedtls_x509_get_key_usage(ptr noundef %0, ptr noundef %1, ptr noundef writeonly captures(none) %2) local_unnamed_addr #0 {
  %4 = alloca %struct.mbedtls_asn1_bitstring, align 8
  call void @llvm.lifetime.start.p0(i64 24, ptr nonnull %4) #13
  call void @llvm.memset.p0.i64(ptr noundef nonnull align 8 dereferenceable(24) %4, i8 0, i64 24, i1 false)
  %5 = call i32 @mbedtls_asn1_get_bitstring(ptr noundef %0, ptr noundef %1, ptr noundef nonnull %4) #13
  %.not = icmp eq i32 %5, 0
  br i1 %.not, label %8, label %6

6:                                                ; preds = %3
  %7 = add nsw i32 %5, -9472
  br label %.loopexit

8:                                                ; preds = %3
  %9 = load i64, ptr %4, align 8, !tbaa !57
  %10 = icmp eq i64 %9, 0
  store i32 0, ptr %2, align 4, !tbaa !15
  br i1 %10, label %.loopexit, label %11

11:                                               ; preds = %8
  %invariant.umin = call i64 @llvm.umin.i64(i64 %9, i64 4)
  %12 = getelementptr inbounds nuw i8, ptr %4, i64 16
  %13 = load ptr, ptr %12, align 8, !tbaa !59
  br label %14

14:                                               ; preds = %11, %14
  %.013 = phi i64 [ 0, %11 ], [ %22, %14 ]
  %15 = phi i32 [ 0, %11 ], [ %21, %14 ]
  %16 = getelementptr inbounds nuw i8, ptr %13, i64 %.013
  %17 = load i8, ptr %16, align 1, !tbaa !8
  %18 = zext i8 %17 to i32
  %.0.tr = trunc nuw i64 %.013 to i32
  %19 = shl nuw nsw i32 %.0.tr, 3
  %20 = shl nuw i32 %18, %19
  %21 = or i32 %20, %15
  store i32 %21, ptr %2, align 4, !tbaa !15
  %22 = add nuw nsw i64 %.013, 1
  %exitcond.not = icmp eq i64 %22, %invariant.umin
  br i1 %exitcond.not, label %.loopexit, label %14, !llvm.loop !60

.loopexit:                                        ; preds = %14, %8, %6
  %.011 = phi i32 [ %7, %6 ], [ 0, %8 ], [ 0, %14 ]
  call void @llvm.lifetime.end.p0(i64 24, ptr nonnull %4) #13
  ret i32 %.011
}